; Function Attrs: nounwind uwtable
define hidden noundef i32 @phpdbg_do_back(ptr noundef readonly %0) #0 {
  %2 = load i8, ptr getelementptr inbounds (%struct._zend_phpdbg_globals, ptr @phpdbg_globals, i64 0, i32 30), align 8
  %3 = and i8 %2, 1
  %.not = icmp eq i8 %3, 0
  br i1 %.not, label %4, label %7

4:                                                ; preds = %1
  %5 = load i32, ptr getelementptr inbounds (%struct._zend_phpdbg_globals, ptr @phpdbg_globals, i64 0, i32 39, i64 1), align 4
  %6 = tail call i32 (i32, i32, ptr, ...) @phpdbg_print(i32 noundef 1, i32 noundef %5, ptr noundef nonnull @.str.97) #24
  br label %12

7:                                                ; preds = %1
  %.not2 = icmp eq ptr %0, null
  br i1 %.not2, label %8, label %9

8:                                                ; preds = %7
  tail call void @phpdbg_dump_backtrace(i64 noundef 0) #24
  br label %12

9:                                                ; preds = %7
  %10 = getelementptr inbounds i8, ptr %0, i64 8
  %11 = load i64, ptr %10, align 8
  tail call void @phpdbg_dump_backtrace(i64 noundef %11) #24
  br label %12

12:                                               ; preds = %8, %9, %4
  ret i32 0
}